target datalayout = "e-m:e-p270:32:32-p271:32:32-p272:64:64-i64:64-i128:128-f80:128-n8:16:32:64-S128"
target triple = "x86_64-pc-linux-gnu"

%struct.mbedtls_psa_pake_operation_t = type { i32, ptr, i64, i32, [336 x i8], i64, i64, %union.anon }
%union.anon = type { %struct.mbedtls_ecjpake_context }
%struct.mbedtls_ecjpake_context = type { i32, %struct.mbedtls_ecp_group, i32, i32, %struct.mbedtls_ecp_point, %struct.mbedtls_ecp_point, %struct.mbedtls_ecp_point, %struct.mbedtls_ecp_point, %struct.mbedtls_ecp_point, %struct.mbedtls_mpi, %struct.mbedtls_mpi, %struct.mbedtls_mpi }
%struct.mbedtls_ecp_group = type { i32, %struct.mbedtls_mpi, %struct.mbedtls_mpi, %struct.mbedtls_mpi, %struct.mbedtls_ecp_point, %struct.mbedtls_mpi, i64, i64, i32, ptr, ptr, ptr, ptr, ptr, i64 }
%struct.mbedtls_ecp_point = type { %struct.mbedtls_mpi, %struct.mbedtls_mpi, %struct.mbedtls_mpi }
%struct.mbedtls_mpi = type { ptr, i16, i16 }

@__const.mbedtls_psa_pake_input_internal.ecparameters = private unnamed_addr constant [3 x i8] c"\03\00\17", align 1

; Function Attrs: nounwind uwtable
define internal i32 @mbedtls_ecjpake_to_psa_error(i32 noundef %0) #0 {
  %2 = alloca i32, align 4
  %3 = alloca i32, align 4
  store i32 %0, ptr %3, align 4, !tbaa !9
  %4 = load i32, ptr %3, align 4, !tbaa !9
  switch i32 %4, label %9 [
    i32 -4, label %5
    i32 -20352, label %5
    i32 -19584, label %5
    i32 -19968, label %5
    i32 -8, label %6
    i32 -20224, label %6
    i32 -20608, label %7
    i32 -110, label %8
  ]

5:                                                ; preds = %1, %1, %1, %1
  store i32 -153, ptr %2, align 4
  br label %10

6:                                                ; preds = %1, %1
  store i32 -138, ptr %2, align 4
  br label %10

7:                                                ; preds = %1
  store i32 -134, ptr %2, align 4
  br label %10

8:                                                ; preds = %1
  store i32 -151, ptr %2, align 4
  br label %10

9:                                                ; preds = %1
  store i32 -132, ptr %2, align 4
  br label %10

10:                                               ; preds = %9, %8, %7, %6, %5
  %11 = load i32, ptr %2, align 4
  ret i32 %11
}

; Function Attrs: nounwind uwtable
define internal i32 @mbedtls_psa_pake_input_internal(ptr noundef %0, i32 noundef %1, ptr noundef %2, i64 noundef %3) #0 {
  %5 = alloca i32, align 4
  %6 = alloca ptr, align 8
  %7 = alloca i32, align 4
  %8 = alloca ptr, align 8
  %9 = alloca i64, align 8
  %10 = alloca i32, align 4
  %11 = alloca [3 x i8], align 1
  %12 = alloca i32, align 4
  store ptr %0, ptr %6, align 8, !tbaa !3
  store i32 %1, ptr %7, align 4, !tbaa !9
  store ptr %2, ptr %8, align 8, !tbaa !13
  store i64 %3, ptr %9, align 8, !tbaa !11
  call void @llvm.lifetime.start.p0(i64 4, ptr %10) #9
  store i32 -110, ptr %10, align 4, !tbaa !9
  %13 = load ptr, ptr %6, align 8, !tbaa !3
  %14 = getelementptr inbounds nuw %struct.mbedtls_psa_pake_operation_t, ptr %13, i32 0, i32 0
  %15 = load i32, ptr %14, align 8, !tbaa !21
  %16 = icmp eq i32 %15, 167772416
  br i1 %16, label %17, label %133

17:                                               ; preds = %4
  %18 = load i32, ptr %7, align 4, !tbaa !9
  %19 = icmp eq i32 %18, 10
  br i1 %19, label %20, label %48

20:                                               ; preds = %17
  %21 = load ptr, ptr %6, align 8, !tbaa !3
  %22 = getelementptr inbounds nuw %struct.mbedtls_psa_pake_operation_t, ptr %21, i32 0, i32 3
  %23 = load i32, ptr %22, align 8, !tbaa !26
  %24 = icmp eq i32 %23, 0
  br i1 %24, label %25, label %48

25:                                               ; preds = %20
  call void @llvm.lifetime.start.p0(i64 3, ptr %11) #9
  call void @llvm.memcpy.p0.p0.i64(ptr align 1 %11, ptr align 1 @__const.mbedtls_psa_pake_input_internal.ecparameters, i64 3, i1 false)
  %26 = load ptr, ptr %6, align 8, !tbaa !3
  %27 = getelementptr inbounds nuw %struct.mbedtls_psa_pake_operation_t, ptr %26, i32 0, i32 5
  %28 = load i64, ptr %27, align 8, !tbaa !27
  %29 = add i64 %28, 3
  %30 = icmp ugt i64 %29, 336
  br i1 %30, label %31, label %32

31:                                               ; preds = %25
  store i32 -138, ptr %5, align 4
  store i32 1, ptr %12, align 4
  br label %45

32:                                               ; preds = %25
  %33 = load ptr, ptr %6, align 8, !tbaa !3
  %34 = getelementptr inbounds nuw %struct.mbedtls_psa_pake_operation_t, ptr %33, i32 0, i32 4
  %35 = getelementptr inbounds [336 x i8], ptr %34, i64 0, i64 0
  %36 = load ptr, ptr %6, align 8, !tbaa !3
  %37 = getelementptr inbounds nuw %struct.mbedtls_psa_pake_operation_t, ptr %36, i32 0, i32 5
  %38 = load i64, ptr %37, align 8, !tbaa !27
  %39 = getelementptr inbounds nuw i8, ptr %35, i64 %38
  %40 = getelementptr inbounds [3 x i8], ptr %11, i64 0, i64 0
  call void @llvm.memcpy.p0.p0.i64(ptr align 1 %39, ptr align 1 %40, i64 3, i1 false)
  %41 = load ptr, ptr %6, align 8, !tbaa !3
  %42 = getelementptr inbounds nuw %struct.mbedtls_psa_pake_operation_t, ptr %41, i32 0, i32 5
  %43 = load i64, ptr %42, align 8, !tbaa !27
  %44 = add i64 %43, 3
  store i64 %44, ptr %42, align 8, !tbaa !27
  store i32 0, ptr %12, align 4
  br label %45

45:                                               ; preds = %32, %31
  call void @llvm.lifetime.end.p0(i64 3, ptr %11) #9
  %46 = load i32, ptr %12, align 4
  switch i32 %46, label %134 [
    i32 0, label %47
  ]

47:                                               ; preds = %45
  br label %48

48:                                               ; preds = %47, %20, %17
  %49 = load ptr, ptr %6, align 8, !tbaa !3
  %50 = getelementptr inbounds nuw %struct.mbedtls_psa_pake_operation_t, ptr %49, i32 0, i32 5
  %51 = load i64, ptr %50, align 8, !tbaa !27
  %52 = load i64, ptr %9, align 8, !tbaa !11
  %53 = add i64 %51, %52
  %54 = add i64 %53, 1
  %55 = icmp ugt i64 %54, 336
  br i1 %55, label %56, label %57

56:                                               ; preds = %48
  store i32 -138, ptr %5, align 4
  store i32 1, ptr %12, align 4
  br label %134

57:                                               ; preds = %48
  %58 = load i64, ptr %9, align 8, !tbaa !11
  %59 = trunc i64 %58 to i8
  %60 = load ptr, ptr %6, align 8, !tbaa !3
  %61 = getelementptr inbounds nuw %struct.mbedtls_psa_pake_operation_t, ptr %60, i32 0, i32 4
  %62 = load ptr, ptr %6, align 8, !tbaa !3
  %63 = getelementptr inbounds nuw %struct.mbedtls_psa_pake_operation_t, ptr %62, i32 0, i32 5
  %64 = load i64, ptr %63, align 8, !tbaa !27
  %65 = getelementptr inbounds nuw [336 x i8], ptr %61, i64 0, i64 %64
  store i8 %59, ptr %65, align 1, !tbaa !31
  %66 = load ptr, ptr %6, align 8, !tbaa !3
  %67 = getelementptr inbounds nuw %struct.mbedtls_psa_pake_operation_t, ptr %66, i32 0, i32 5
  %68 = load i64, ptr %67, align 8, !tbaa !27
  %69 = add i64 %68, 1
  store i64 %69, ptr %67, align 8, !tbaa !27
  %70 = load ptr, ptr %6, align 8, !tbaa !3
  %71 = getelementptr inbounds nuw %struct.mbedtls_psa_pake_operation_t, ptr %70, i32 0, i32 4
  %72 = getelementptr inbounds [336 x i8], ptr %71, i64 0, i64 0
  %73 = load ptr, ptr %6, align 8, !tbaa !3
  %74 = getelementptr inbounds nuw %struct.mbedtls_psa_pake_operation_t, ptr %73, i32 0, i32 5
  %75 = load i64, ptr %74, align 8, !tbaa !27
  %76 = getelementptr inbounds nuw i8, ptr %72, i64 %75
  %77 = load ptr, ptr %8, align 8, !tbaa !13
  %78 = load i64, ptr %9, align 8, !tbaa !11
  call void @llvm.memcpy.p0.p0.i64(ptr align 1 %76, ptr align 1 %77, i64 %78, i1 false)
  %79 = load i64, ptr %9, align 8, !tbaa !11
  %80 = load ptr, ptr %6, align 8, !tbaa !3
  %81 = getelementptr inbounds nuw %struct.mbedtls_psa_pake_operation_t, ptr %80, i32 0, i32 5
  %82 = load i64, ptr %81, align 8, !tbaa !27
  %83 = add i64 %82, %79
  store i64 %83, ptr %81, align 8, !tbaa !27
  %84 = load i32, ptr %7, align 4, !tbaa !9
  %85 = icmp eq i32 %84, 6
  br i1 %85, label %86, label %107

86:                                               ; preds = %57
  %87 = load ptr, ptr %6, align 8, !tbaa !3
  %88 = getelementptr inbounds nuw %struct.mbedtls_psa_pake_operation_t, ptr %87, i32 0, i32 7
  %89 = load ptr, ptr %6, align 8, !tbaa !3
  %90 = getelementptr inbounds nuw %struct.mbedtls_psa_pake_operation_t, ptr %89, i32 0, i32 4
  %91 = getelementptr inbounds [336 x i8], ptr %90, i64 0, i64 0
  %92 = load ptr, ptr %6, align 8, !tbaa !3
  %93 = getelementptr inbounds nuw %struct.mbedtls_psa_pake_operation_t, ptr %92, i32 0, i32 5
  %94 = load i64, ptr %93, align 8, !tbaa !27
  %95 = call i32 @mbedtls_ecjpake_read_round_one(ptr noundef %88, ptr noundef %91, i64 noundef %94)
  store i32 %95, ptr %10, align 4, !tbaa !9
  %96 = load ptr, ptr %6, align 8, !tbaa !3
  %97 = getelementptr inbounds nuw %struct.mbedtls_psa_pake_operation_t, ptr %96, i32 0, i32 4
  %98 = getelementptr inbounds [336 x i8], ptr %97, i64 0, i64 0
  call void @mbedtls_platform_zeroize(ptr noundef %98, i64 noundef 336)
  %99 = load ptr, ptr %6, align 8, !tbaa !3
  %100 = getelementptr inbounds nuw %struct.mbedtls_psa_pake_operation_t, ptr %99, i32 0, i32 5
  store i64 0, ptr %100, align 8, !tbaa !27
  %101 = load i32, ptr %10, align 4, !tbaa !9
  %102 = icmp ne i32 %101, 0
  br i1 %102, label %103, label %106

103:                                              ; preds = %86
  %104 = load i32, ptr %10, align 4, !tbaa !9
  %105 = call i32 @mbedtls_ecjpake_to_psa_error(i32 noundef %104)
  store i32 %105, ptr %5, align 4
  store i32 1, ptr %12, align 4
  br label %134

106:                                              ; preds = %86
  br label %132

107:                                              ; preds = %57
  %108 = load i32, ptr %7, align 4, !tbaa !9
  %109 = icmp eq i32 %108, 12
  br i1 %109, label %110, label %131

110:                                              ; preds = %107
  %111 = load ptr, ptr %6, align 8, !tbaa !3
  %112 = getelementptr inbounds nuw %struct.mbedtls_psa_pake_operation_t, ptr %111, i32 0, i32 7
  %113 = load ptr, ptr %6, align 8, !tbaa !3
  %114 = getelementptr inbounds nuw %struct.mbedtls_psa_pake_operation_t, ptr %113, i32 0, i32 4
  %115 = getelementptr inbounds [336 x i8], ptr %114, i64 0, i64 0
  %116 = load ptr, ptr %6, align 8, !tbaa !3
  %117 = getelementptr inbounds nuw %struct.mbedtls_psa_pake_operation_t, ptr %116, i32 0, i32 5
  %118 = load i64, ptr %117, align 8, !tbaa !27
  %119 = call i32 @mbedtls_ecjpake_read_round_two(ptr noundef %112, ptr noundef %115, i64 noundef %118)
  store i32 %119, ptr %10, align 4, !tbaa !9
  %120 = load ptr, ptr %6, align 8, !tbaa !3
  %121 = getelementptr inbounds nuw %struct.mbedtls_psa_pake_operation_t, ptr %120, i32 0, i32 4
  %122 = getelementptr inbounds [336 x i8], ptr %121, i64 0, i64 0
  call void @mbedtls_platform_zeroize(ptr noundef %122, i64 noundef 336)
  %123 = load ptr, ptr %6, align 8, !tbaa !3
  %124 = getelementptr inbounds nuw %struct.mbedtls_psa_pake_operation_t, ptr %123, i32 0, i32 5
  store i64 0, ptr %124, align 8, !tbaa !27
  %125 = load i32, ptr %10, align 4, !tbaa !9
  %126 = icmp ne i32 %125, 0
  br i1 %126, label %127, label %130

127:                                              ; preds = %110
  %128 = load i32, ptr %10, align 4, !tbaa !9
  %129 = call i32 @mbedtls_ecjpake_to_psa_error(i32 noundef %128)
  store i32 %129, ptr %5, align 4
  store i32 1, ptr %12, align 4
  br label %134

130:                                              ; preds = %110
  br label %131

131:                                              ; preds = %130, %107
  br label %132

132:                                              ; preds = %131, %106
  store i32 0, ptr %5, align 4
  store i32 1, ptr %12, align 4
  br label %134

133:                                              ; preds = %4
  store i32 -134, ptr %5, align 4
  store i32 1, ptr %12, align 4
  br label %134

134:                                              ; preds = %133, %132, %127, %103, %56, %45
  call void @llvm.lifetime.end.p0(i64 4, ptr %10) #9
  %135 = load i32, ptr %5, align 4
  ret i32 %135
}

; Function Attrs: nounwind uwtable
define hidden i32 @mbedtls_psa_pake_input(ptr noundef %0, i32 noundef %1, ptr noundef %2, i64 noundef %3) #0 {
  %5 = alloca ptr, align 8
  %6 = alloca i32, align 4
  %7 = alloca ptr, align 8
  %8 = alloca i64, align 8
  %9 = alloca i32, align 4
  store ptr %0, ptr %5, align 8, !tbaa !3
  store i32 %1, ptr %6, align 4, !tbaa !9
  store ptr %2, ptr %7, align 8, !tbaa !13
  store i64 %3, ptr %8, align 8, !tbaa !11
  call void @llvm.lifetime.start.p0(i64 4, ptr %9) #9
  %10 = load ptr, ptr %5, align 8, !tbaa !3
  %11 = load i32, ptr %6, align 4, !tbaa !9
  %12 = load ptr, ptr %7, align 8, !tbaa !13
  %13 = load i64, ptr %8, align 8, !tbaa !11
  %14 = call i32 @mbedtls_psa_pake_input_internal(ptr noundef %10, i32 noundef %11, ptr noundef %12, i64 noundef %13)
  store i32 %14, ptr %9, align 4, !tbaa !9
  %15 = load i32, ptr %9, align 4, !tbaa !9
  call void @llvm.lifetime.end.p0(i64 4, ptr %9) #9
  ret i32 %15
}