; Function Attrs: nounwind uwtable
define hidden range(i32 -153, 1) i32 @mbedtls_psa_pake_input(ptr noundef %0, i32 noundef %1, ptr noundef readonly captures(none) %2, i64 noundef %3) local_unnamed_addr #0 {
  %5 = load i32, ptr %0, align 8, !tbaa !16
  %6 = icmp eq i32 %5, 167772416
  br i1 %6, label %7, label %mbedtls_psa_pake_input_internal.exit

7:                                                ; preds = %4
  %8 = icmp eq i32 %1, 10
  br i1 %8, label %9, label %23

9:                                                ; preds = %7
  %10 = getelementptr inbounds nuw i8, ptr %0, i64 24
  %11 = load i32, ptr %10, align 8, !tbaa !18
  %12 = icmp eq i32 %11, 0
  br i1 %12, label %13, label %23

13:                                               ; preds = %9
  %14 = getelementptr inbounds nuw i8, ptr %0, i64 368
  %15 = load i64, ptr %14, align 8, !tbaa !21
  %16 = add i64 %15, 3
  %17 = icmp ult i64 %16, 337
  br i1 %17, label %18, label %mbedtls_psa_pake_input_internal.exit

18:                                               ; preds = %13
  %19 = getelementptr inbounds nuw i8, ptr %0, i64 28
  %20 = getelementptr inbounds nuw i8, ptr %19, i64 %15
  tail call void @llvm.memcpy.p0.p0.i64(ptr noundef nonnull align 1 dereferenceable(3) %20, ptr noundef nonnull align 1 dereferenceable(3) @__const.mbedtls_psa_pake_input_internal.ecparameters, i64 3, i1 false)
  %21 = load i64, ptr %14, align 8, !tbaa !21
  %22 = add i64 %21, 3
  store i64 %22, ptr %14, align 8, !tbaa !21
  br label %23

23:                                               ; preds = %18, %9, %7
  %24 = getelementptr inbounds nuw i8, ptr %0, i64 368
  %25 = load i64, ptr %24, align 8, !tbaa !21
  %26 = add i64 %3, -336
  %27 = add i64 %26, %25
  %28 = icmp ult i64 %27, -337
  br i1 %28, label %mbedtls_psa_pake_input_internal.exit, label %29

29:                                               ; preds = %23
  %30 = trunc i64 %3 to i8
  %31 = getelementptr inbounds nuw i8, ptr %0, i64 28
  %32 = getelementptr inbounds nuw [336 x i8], ptr %31, i64 0, i64 %25
  store i8 %30, ptr %32, align 1, !tbaa !20
  %33 = load i64, ptr %24, align 8, !tbaa !21
  %34 = add i64 %33, 1
  store i64 %34, ptr %24, align 8, !tbaa !21
  %35 = getelementptr inbounds nuw i8, ptr %31, i64 %34
  tail call void @llvm.memcpy.p0.p0.i64(ptr nonnull align 1 %35, ptr readonly align 1 %2, i64 %3, i1 false)
  %36 = load i64, ptr %24, align 8, !tbaa !21
  %37 = add i64 %36, %3
  store i64 %37, ptr %24, align 8, !tbaa !21
  switch i32 %1, label %mbedtls_psa_pake_input_internal.exit [
    i32 6, label %38
    i32 12, label %45
  ]

38:                                               ; preds = %29
  %39 = getelementptr inbounds nuw i8, ptr %0, i64 384
  %40 = tail call i32 @mbedtls_ecjpake_read_round_one(ptr noundef nonnull %39, ptr noundef nonnull %31, i64 noundef %37) #8
  tail call void @mbedtls_platform_zeroize(ptr noundef nonnull %31, i64 noundef 336) #8
  store i64 0, ptr %24, align 8, !tbaa !21
  switch i32 %40, label %44 [
    i32 0, label %mbedtls_psa_pake_input_internal.exit
    i32 -4, label %.critedge.fold.split.i
    i32 -20352, label %.critedge.fold.split.i
    i32 -19584, label %.critedge.fold.split.i
    i32 -19968, label %.critedge.fold.split.i
    i32 -8, label %41
    i32 -20224, label %41
    i32 -20608, label %42
    i32 -110, label %43
  ]

41:                                               ; preds = %38, %38
  br label %mbedtls_psa_pake_input_internal.exit

42:                                               ; preds = %38
  br label %mbedtls_psa_pake_input_internal.exit

43:                                               ; preds = %38
  br label %mbedtls_psa_pake_input_internal.exit

44:                                               ; preds = %38
  br label %mbedtls_psa_pake_input_internal.exit

45:                                               ; preds = %29
  %46 = getelementptr inbounds nuw i8, ptr %0, i64 384
  %47 = tail call i32 @mbedtls_ecjpake_read_round_two(ptr noundef nonnull %46, ptr noundef nonnull %31, i64 noundef %37) #8
  tail call void @mbedtls_platform_zeroize(ptr noundef nonnull %31, i64 noundef 336) #8
  store i64 0, ptr %24, align 8, !tbaa !21
  switch i32 %47, label %51 [
    i32 0, label %mbedtls_psa_pake_input_internal.exit
    i32 -4, label %.critedge.fold.split43.i
    i32 -20352, label %.critedge.fold.split43.i
    i32 -19584, label %.critedge.fold.split43.i
    i32 -19968, label %.critedge.fold.split43.i
    i32 -8, label %48
    i32 -20224, label %48
    i32 -20608, label %49
    i32 -110, label %50
  ]

48:                                               ; preds = %45, %45
  br label %mbedtls_psa_pake_input_internal.exit

49:                                               ; preds = %45
  br label %mbedtls_psa_pake_input_internal.exit

50:                                               ; preds = %45
  br label %mbedtls_psa_pake_input_internal.exit

51:                                               ; preds = %45
  br label %mbedtls_psa_pake_input_internal.exit

.critedge.fold.split.i:                           ; preds = %38, %38, %38, %38
  br label %mbedtls_psa_pake_input_internal.exit

.critedge.fold.split43.i:                         ; preds = %45, %45, %45, %45
  br label %mbedtls_psa_pake_input_internal.exit

mbedtls_psa_pake_input_internal.exit:             ; preds = %4, %13, %23, %29, %38, %41, %42, %43, %44, %45, %48, %49, %50, %51, %.critedge.fold.split.i, %.critedge.fold.split43.i
  %.1.i = phi i32 [ -138, %23 ], [ 0, %29 ], [ %47, %45 ], [ %40, %38 ], [ -134, %4 ], [ -138, %13 ], [ -132, %44 ], [ -151, %43 ], [ -134, %42 ], [ -138, %41 ], [ -132, %51 ], [ -151, %50 ], [ -134, %49 ], [ -138, %48 ], [ -153, %.critedge.fold.split.i ], [ -153, %.critedge.fold.split43.i ]
  ret i32 %.1.i
}